Certificate:
    Data:
        Version: 1 (0x0)
        Serial Number: 4096 (0x1000)
    Signature Algorithm: sha256WithRSAEncryption
        Issuer: C=GB, ST=London, L=London, O=Acme CA Ltd, OU=IT Department, CN=www.acme-ca.com
        Validity
            Not Before: Dec 17 14:57:20 2015 GMT
            Not After : Dec 14 14:57:20 2025 GMT
        Subject: C=GB, ST=London, O=retailer, OU=IT Department, CN=retailer.com
        Subject Public Key Info:
            Public Key Algorithm: rsaEncryption
                Public-Key: (2048 bit)
                Modulus:
                    00:af:cb:f1:6c:62:cf:45:72:5c:c8:80:ea:7a:65:
                    37:44:47:55:bf:85:2f:00:68:d3:89:59:b9:16:34:
                    11:73:57:81:68:47:ed:c7:52:80:26:29:4d:ed:9e:
                    f9:64:71:4b:6c:eb:70:8c:7e:51:c7:70:97:4b:59:
                    db:f3:a1:c2:8b:e0:e7:f2:5e:96:5c:66:bc:01:2b:
                    09:9e:01:fd:cb:d8:f6:72:45:15:47:f9:9d:87:b9:
                    a0:e9:6a:e8:1e:c2:b2:bc:35:0f:b8:d8:aa:06:53:
                    f7:dd:f3:df:4b:28:68:bd:9f:f7:c9:09:73:ce:8e:
                    27:c9:b9:6e:6a:bd:1c:fc:88:1b:67:1f:1d:22:7b:
                    8b:67:6d:fe:87:f9:eb:be:ed:6d:22:e1:90:34:62:
                    98:01:7b:04:01:6c:25:fb:ec:50:98:d6:a7:b8:46:
                    b9:7e:ee:0a:b3:e3:68:cf:2e:6e:6d:63:b8:87:b9:
                    31:58:d2:09:40:69:62:27:54:ca:f4:79:ca:c7:22:
                    88:e8:57:73:6c:9c:11:6d:0b:28:a9:99:db:d8:4a:
                    93:c0:dd:6d:25:7f:c8:7c:f7:97:0e:58:e9:22:03:
                    62:12:06:2c:79:fb:cc:1d:bd:d6:33:5a:24:2e:e9:
                    04:6c:8d:7b:e2:56:26:fc:c0:9e:17:9d:f9:98:1e:
                    29:97
                Exponent: 65537 (0x10001)
    Signature Algorithm: sha256WithRSAEncryption
         4b:6c:39:16:4f:64:20:9a:a5:04:5e:32:68:ec:97:c7:5b:20:
         c8:c0:c7:f0:68:ed:f9:48:0a:a5:fb:70:b3:d6:d6:f9:dd:fd:
         f4:5a:3a:a2:29:85:7d:57:bd:a5:14:89:3e:3d:66:4c:cd:c8:
         1d:43:38:5d:d2:e3:33:0a:e8:81:61:47:ab:a7:d2:a2:22:65:
         a6:1a:be:46:ce:28:8f:b0:75:db:e3:96:95:f9:6c:49:e0:d3:
         75:81:8e:18:38:6e:ca:b9:22:25:70:51:bf:2d:86:03:21:9f:
         21:e6:b7:0a:55:dd:e3:33:03:0e:40:7e:c8:84:9f:29:a7:a5:
         49:84:51:3d:ff:d1:84:10:eb:76:2d:18:61:fe:16:da:20:d3:
         dc:13:ee:aa:7e:e9:b5:4d:e1:bd:d8:20:89:d0:2b:22:db:a9:
         e2:c9:f1:76:ee:8a:7b:49:35:c9:30:bc:4b:0d:ae:b6:12:bf:
         a2:76:eb:a2:d7:72:09:49:ed:72:45:ad:57:2f:89:10:7c:6a:
         8c:bb:8e:90:47:e1:2c:9d:ce:b7:b8:d6:83:ee:89:24:ad:19:
         db:7c:0e:92:aa:b4:25:67:66:ee:fd:87:80:de:24:b2:36:69:
         0d:28:eb:1b:c0:3c:4e:eb:4d:33:67:b0:77:2e:2a:e8:b4:a3:
         27:e5:5a:ec
-----BEGIN CERTIFICATE-----
MIIDTDCCAjQCAhAAMA0GCSqGSIb3DQEBCwUAMHcxCzAJBgNVBAYTAkdCMQ8wDQYD
VQQIDAZMb25kb24xDzANBgNVBAcMBkxvbmRvbjEUMBIGA1UECgwLQWNtZSBDQSBM
dGQxFjAUBgNVBAsMDUlUIERlcGFydG1lbnQxGDAWBgNVBAMMD3d3dy5hY21lLWNh
LmNvbTAeFw0xNTEyMTcxNDU3MjBaFw0yNTEyMTQxNDU3MjBaMGAxCzAJBgNVBAYT
AkdCMQ8wDQYDVQQIDAZMb25kb24xETAPBgNVBAoMCHJldGFpbGVyMRYwFAYDVQQL
DA1JVCBEZXBhcnRtZW50MRUwEwYDVQQDDAxyZXRhaWxlci5jb20wggEiMA0GCSqG
SIb3DQEBAQUAA4IBDwAwggEKAoIBAQCvy/FsYs9FclzIgOp6ZTdER1W/hS8AaNOJ
WbkWNBFzV4FoR+3HUoAmKU3tnvlkcUts63CMflHHcJdLWdvzocKL4OfyXpZcZrwB
KwmeAf3L2PZyRRVH+Z2HuaDpaugewrK8NQ+42KoGU/fd899LKGi9n/fJCXPOjifJ
uW5qvRz8iBtnHx0ie4tnbf6H+eu+7W0i4ZA0YpgBewQBbCX77FCY1qe4Rrl+7gqz
42jPLm5tY7iHuTFY0glAaWInVMr0ecrHIojoV3NsnBFtCyipmdvYSpPA3W0lf8h8
95cOWOkiA2ISBix5+8wdvdYzWiQu6QRsjXviVib8wJ4XnfmYHimXAgMBAAEwDQYJ
KoZIhvcNAQELBQADggEBAEtsORZPZCCapQReMmjsl8dbIMjAx/Bo7flICqX7cLPW
1vnd/fRaOqIphX1XvaUUiT49ZkzNyB1DOF3S4zMK6IFhR6un0qIiZaYavkbOKI+w
ddvjlpX5bEng03WBjhg4bsq5IiVwUb8thgMhnyHmtwpV3eMzAw5AfsiEnymnpUmE
UT3/0YQQ63YtGGH+Ftog09wT7qp+6bVN4b3YIInQKyLbqeLJ8XbuintJNckwvEsN
rrYSv6J266LXcglJ7XJFrVcviRB8aoy7jpBH4Sydzre41oPuiSStGdt8DpKqtCVn
Zu79h4DeJLI2aQ0o6xvAPE7rTTNnsHcuKui0oyflWuw=
-----END CERTIFICATE-----
